target datalayout = "e-m:e-p270:32:32-p271:32:32-p272:64:64-i64:64-i128:128-f80:128-n8:16:32:64-S128"
target triple = "x86_64-unknown-linux-gnu"

%"class.std::set.0" = type { %"class.std::_Rb_tree.1" }
%"class.std::_Rb_tree.1" = type { %"struct.std::_Rb_tree<QuantLib::Observer *, QuantLib::Observer *, std::_Identity<QuantLib::Observer *>, std::less<QuantLib::Observer *>>::_Rb_tree_impl" }
%"struct.std::_Rb_tree<QuantLib::Observer *, QuantLib::Observer *, std::_Identity<QuantLib::Observer *>, std::less<QuantLib::Observer *>>::_Rb_tree_impl" = type { [8 x i8], %"struct.std::_Rb_tree_header" }
%"struct.std::_Rb_tree_header" = type { %"struct.std::_Rb_tree_node_base", i64 }
%"struct.std::_Rb_tree_node_base" = type { i32, ptr, ptr, ptr }
%"class.QuantLib::Date" = type { i64 }
%"class.boost::detail::shared_count" = type { ptr }
%"class.std::set" = type { %"class.std::_Rb_tree" }
%"class.std::_Rb_tree" = type { %"struct.std::_Rb_tree<boost::shared_ptr<QuantLib::Observable>, boost::shared_ptr<QuantLib::Observable>, std::_Identity<boost::shared_ptr<QuantLib::Observable>>, std::less<boost::shared_ptr<QuantLib::Observable>>>::_Rb_tree_impl" }
%"struct.std::_Rb_tree<boost::shared_ptr<QuantLib::Observable>, boost::shared_ptr<QuantLib::Observable>, std::_Identity<boost::shared_ptr<QuantLib::Observable>>, std::less<boost::shared_ptr<QuantLib::Observable>>>::_Rb_tree_impl" = type { [8 x i8], %"struct.std::_Rb_tree_header" }
%"class.QuantLib::Observable" = type { ptr, %"class.std::set.0" }
%"class.QuantLib::DayCounter" = type { %"class.boost::shared_ptr.16" }
%"class.boost::shared_ptr.16" = type { ptr, %"class.boost::detail::shared_count" }
%"class.QuantLib::Handle.53" = type { %"class.boost::shared_ptr.54" }
%"class.boost::shared_ptr.54" = type { ptr, %"class.boost::detail::shared_count" }
%"class.QuantLib::LinearTsrPricer" = type { %"class.QuantLib::CmsCouponPricer.base", %"class.QuantLib::MeanRevertingPricer", double, double, %"class.QuantLib::Handle", %"class.QuantLib::Handle.50", %"class.QuantLib::Handle.50", %"class.QuantLib::Handle.50", ptr, %"class.QuantLib::Date", %"class.QuantLib::Date", %"class.QuantLib::Date", double, double, %"class.QuantLib::Period", double, double, double, double, double, %"class.boost::shared_ptr.55", %"class.boost::shared_ptr.56", %"class.boost::shared_ptr.48", %"struct.QuantLib::LinearTsrPricer::Settings", %"class.QuantLib::DayCounter", %"class.boost::shared_ptr.52", double, double, %"class.QuantLib::Observer", %"class.QuantLib::Observable" }
%"class.QuantLib::CmsCouponPricer.base" = type { %"class.QuantLib::FloatingRateCouponPricer.base", %"class.QuantLib::Handle.53" }
%"class.QuantLib::FloatingRateCouponPricer.base" = type { ptr }
%"class.QuantLib::MeanRevertingPricer" = type { ptr }
%"class.QuantLib::Handle" = type { %"class.boost::shared_ptr.49" }
%"class.boost::shared_ptr.49" = type { ptr, %"class.boost::detail::shared_count" }
%"class.QuantLib::Handle.50" = type { %"class.boost::shared_ptr.51" }
%"class.boost::shared_ptr.51" = type { ptr, %"class.boost::detail::shared_count" }
%"class.QuantLib::Period" = type { i32, i32 }
%"class.boost::shared_ptr.55" = type { ptr, %"class.boost::detail::shared_count" }
%"class.boost::shared_ptr.56" = type { ptr, %"class.boost::detail::shared_count" }
%"class.boost::shared_ptr.48" = type { ptr, %"class.boost::detail::shared_count" }
%"struct.QuantLib::LinearTsrPricer::Settings" = type <{ i32, [4 x i8], double, double, double, double, double, i8, [7 x i8] }>
%"class.boost::shared_ptr.52" = type { ptr, %"class.boost::detail::shared_count" }
%"class.QuantLib::Observer" = type { ptr, %"class.std::set" }

; Function Attrs: mustprogress uwtable
define noundef double @_ZNK8QuantLib15LinearTsrPricer12floorletRateEd(ptr noundef nonnull align 8 dereferenceable(360) %this, double noundef %effectiveFloor) unnamed_addr #2 align 2 {
entry:
  %this.addr = alloca ptr, align 8
  %effectiveFloor.addr = alloca double, align 8
  store ptr %this, ptr %this.addr, align 8, !tbaa !3
  store double %effectiveFloor, ptr %effectiveFloor.addr, align 8, !tbaa !17
  %this1 = load ptr, ptr %this.addr, align 8
  %0 = load double, ptr %effectiveFloor.addr, align 8, !tbaa !17
  %vtable = load ptr, ptr %this1, align 8, !tbaa !12
  %vfn = getelementptr inbounds ptr, ptr %vtable, i64 6
  %1 = load ptr, ptr %vfn, align 8
  %call = call noundef double %1(ptr noundef nonnull align 8 dereferenceable(360) %this1, double noundef %0)
  %coupon_ = getelementptr inbounds nuw %"class.QuantLib::LinearTsrPricer", ptr %this1, i32 0, i32 8
  %2 = load ptr, ptr %coupon_, align 8, !tbaa !61
  %call2 = call noundef double @_ZNK8QuantLib6Coupon13accrualPeriodEv(ptr noundef nonnull align 8 dereferenceable(88) %2)
  %discountCurvePaymentDiscount_ = getelementptr inbounds nuw %"class.QuantLib::LinearTsrPricer", ptr %this1, i32 0, i32 18
  %3 = load double, ptr %discountCurvePaymentDiscount_, align 8, !tbaa !66
  %mul = fmul double %call2, %3
  %couponDiscountRatio_ = getelementptr inbounds nuw %"class.QuantLib::LinearTsrPricer", ptr %this1, i32 0, i32 17
  %4 = load double, ptr %couponDiscountRatio_, align 8, !tbaa !67
  %mul3 = fmul double %mul, %4
  %div = fdiv double %call, %mul3
  ret double %div
}